target datalayout = "e-m:e-p270:32:32-p271:32:32-p272:64:64-i64:64-i128:128-f80:128-n8:16:32:64-S128"
target triple = "x86_64-pc-linux-gnu"

%"struct.pxrInternal_v0_24__pxrReserved__::HgiDepthStencilState" = type { i8, i8, i32, i8, float, float, i8, %"struct.pxrInternal_v0_24__pxrReserved__::HgiStencilState", %"struct.pxrInternal_v0_24__pxrReserved__::HgiStencilState" }
%"struct.pxrInternal_v0_24__pxrReserved__::HgiStencilState" = type { i32, i32, i32, i32, i32, i32, i32 }

@_ZN32pxrInternal_v0_24__pxrReserved__15HgiStencilStateC1Ev = unnamed_addr alias void (ptr), ptr @_ZN32pxrInternal_v0_24__pxrReserved__15HgiStencilStateC2Ev

; Function Attrs: mustprogress uwtable
define void @_ZN32pxrInternal_v0_24__pxrReserved__20HgiDepthStencilStateC2Ev(ptr noundef nonnull align 4 dereferenceable(80) %0) unnamed_addr #1 align 2 {
  %2 = alloca ptr, align 8
  store ptr %0, ptr %2, align 8
  %3 = load ptr, ptr %2, align 8
  %4 = getelementptr inbounds nuw %"struct.pxrInternal_v0_24__pxrReserved__::HgiDepthStencilState", ptr %3, i32 0, i32 0
  store i8 1, ptr %4, align 4
  %5 = getelementptr inbounds nuw %"struct.pxrInternal_v0_24__pxrReserved__::HgiDepthStencilState", ptr %3, i32 0, i32 1
  store i8 1, ptr %5, align 1
  %6 = getelementptr inbounds nuw %"struct.pxrInternal_v0_24__pxrReserved__::HgiDepthStencilState", ptr %3, i32 0, i32 2
  store i32 1, ptr %6, align 4
  %7 = getelementptr inbounds nuw %"struct.pxrInternal_v0_24__pxrReserved__::HgiDepthStencilState", ptr %3, i32 0, i32 3
  store i8 0, ptr %7, align 4
  %8 = getelementptr inbounds nuw %"struct.pxrInternal_v0_24__pxrReserved__::HgiDepthStencilState", ptr %3, i32 0, i32 4
  store float 0.000000e+00, ptr %8, align 4
  %9 = getelementptr inbounds nuw %"struct.pxrInternal_v0_24__pxrReserved__::HgiDepthStencilState", ptr %3, i32 0, i32 5
  store float 0.000000e+00, ptr %9, align 4
  %10 = getelementptr inbounds nuw %"struct.pxrInternal_v0_24__pxrReserved__::HgiDepthStencilState", ptr %3, i32 0, i32 6
  store i8 0, ptr %10, align 4
  %11 = getelementptr inbounds nuw %"struct.pxrInternal_v0_24__pxrReserved__::HgiDepthStencilState", ptr %3, i32 0, i32 7
  call void @_ZN32pxrInternal_v0_24__pxrReserved__15HgiStencilStateC1Ev(ptr noundef nonnull align 4 dereferenceable(28) %11)
  %12 = getelementptr inbounds nuw %"struct.pxrInternal_v0_24__pxrReserved__::HgiDepthStencilState", ptr %3, i32 0, i32 8
  call void @_ZN32pxrInternal_v0_24__pxrReserved__15HgiStencilStateC1Ev(ptr noundef nonnull align 4 dereferenceable(28) %12)
  ret void
}