; Function Attrs: mustprogress uwtable
define void @_ZN32pxrInternal_v0_24__pxrReserved__20HgiDepthStencilStateC2Ev(ptr noundef nonnull align 4 dereferenceable(80) %0) unnamed_addr #3 align 2 {
  store i8 1, ptr %0, align 4
  %2 = getelementptr inbounds nuw i8, ptr %0, i64 1
  store i8 1, ptr %2, align 1
  %3 = getelementptr inbounds nuw i8, ptr %0, i64 4
  store i32 1, ptr %3, align 4
  %4 = getelementptr inbounds nuw i8, ptr %0, i64 8
  store i8 0, ptr %4, align 4
  %5 = getelementptr inbounds nuw i8, ptr %0, i64 12
  %6 = getelementptr inbounds nuw i8, ptr %0, i64 24
  tail call void @llvm.memset.p0.i64(ptr noundef nonnull align 4 dereferenceable(9) %5, i8 0, i64 9, i1 false)
  tail call void @_ZN32pxrInternal_v0_24__pxrReserved__15HgiStencilStateC1Ev(ptr noundef nonnull align 4 dereferenceable(28) %6)
  %7 = getelementptr inbounds nuw i8, ptr %0, i64 52
  tail call void @_ZN32pxrInternal_v0_24__pxrReserved__15HgiStencilStateC1Ev(ptr noundef nonnull align 4 dereferenceable(28) %7)
  ret void
}